; ModuleID = '50/757.c'
source_filename = "50/757.c"
target datalayout = "e-m:e-p270:32:32-p271:32:32-p272:64:64-i64:64-f80:128-n8:16:32:64-S128"
target triple = "x86_64-pc-linux-gnu"

@.str = private unnamed_addr constant [3 x i8] c"%d\00", align 1
@.str.1 = private unnamed_addr constant [4 x i8] c"%d\0A\00", align 1

; Function Attrs: noinline nounwind uwtable
define dso_local i32 @main() #0 {
  %1 = alloca i32, align 4
  %2 = alloca i32, align 4
  %3 = alloca i32, align 4
  %4 = alloca i32, align 4
  %5 = alloca i32, align 4
  %6 = alloca i32, align 4
  store i32 0, i32* %1, align 4
  store i32 12, i32* %4, align 4
  %7 = call i32 (i8*, ...) @__isoc99_scanf(i8* getelementptr inbounds ([3 x i8], [3 x i8]* @.str, i64 0, i64 0), i32* %2)
  store i32 1, i32* %3, align 4
  br label %8

8:                                                ; preds = %75, %0
  %9 = load i32, i32* %3, align 4
  %10 = icmp sle i32 %9, 12
  br i1 %10, label %11, label %78

11:                                               ; preds = %8
  %12 = load i32, i32* %3, align 4
  %13 = icmp eq i32 %12, 1
  br i1 %13, label %14, label %17

14:                                               ; preds = %11
  %15 = load i32, i32* %4, align 4
  %16 = add nsw i32 %15, 0
  store i32 %16, i32* %4, align 4
  br label %17

17:                                               ; preds = %14, %11
  %18 = load i32, i32* %3, align 4
  %19 = icmp eq i32 %18, 2
  br i1 %19, label %35, label %20

20:                                               ; preds = %17
  %21 = load i32, i32* %3, align 4
  %22 = icmp eq i32 %21, 4
  br i1 %22, label %35, label %23

23:                                               ; preds = %20
  %24 = load i32, i32* %3, align 4
  %25 = icmp eq i32 %24, 6
  br i1 %25, label %35, label %26

26:                                               ; preds = %23
  %27 = load i32, i32* %3, align 4
  %28 = icmp eq i32 %27, 8
  br i1 %28, label %35, label %29

29:                                               ; preds = %26
  %30 = load i32, i32* %3, align 4
  %31 = icmp eq i32 %30, 9
  br i1 %31, label %35, label %32

32:                                               ; preds = %29
  %33 = load i32, i32* %3, align 4
  %34 = icmp eq i32 %33, 11
  br i1 %34, label %35, label %38

35:                                               ; preds = %32, %29, %26, %23, %20, %17
  %36 = load i32, i32* %4, align 4
  %37 = add nsw i32 %36, 31
  store i32 %37, i32* %4, align 4
  br label %57

38:                                               ; preds = %32
  %39 = load i32, i32* %3, align 4
  %40 = icmp eq i32 %39, 5
  br i1 %40, label %50, label %41

41:                                               ; preds = %38
  %42 = load i32, i32* %3, align 4
  %43 = icmp eq i32 %42, 7
  br i1 %43, label %50, label %44

44:                                               ; preds = %41
  %45 = load i32, i32* %3, align 4
  %46 = icmp eq i32 %45, 10
  br i1 %46, label %50, label %47

47:                                               ; preds = %44
  %48 = load i32, i32* %3, align 4
  %49 = icmp eq i32 %48, 12
  br i1 %49, label %50, label %53

50:                                               ; preds = %47, %44, %41, %38
  %51 = load i32, i32* %4, align 4
  %52 = add nsw i32 %51, 30
  store i32 %52, i32* %4, align 4
  br label %56

53:                                               ; preds = %47
  %54 = load i32, i32* %4, align 4
  %55 = add nsw i32 %54, 28
  store i32 %55, i32* %4, align 4
  br label %56

56:                                               ; preds = %53, %50
  br label %57

57:                                               ; preds = %56, %35
  %58 = load i32, i32* %4, align 4
  %59 = srem i32 %58, 7
  store i32 %59, i32* %5, align 4
  %60 = load i32, i32* %5, align 4
  %61 = load i32, i32* %2, align 4
  %62 = add nsw i32 %60, %61
  store i32 %62, i32* %6, align 4
  %63 = load i32, i32* %6, align 4
  %64 = icmp sgt i32 %63, 7
  br i1 %64, label %65, label %68

65:                                               ; preds = %57
  %66 = load i32, i32* %6, align 4
  %67 = sub nsw i32 %66, 7
  store i32 %67, i32* %6, align 4
  br label %68

68:                                               ; preds = %65, %57
  %69 = load i32, i32* %6, align 4
  %70 = icmp eq i32 %69, 5
  br i1 %70, label %71, label %74

71:                                               ; preds = %68
  %72 = load i32, i32* %3, align 4
  %73 = call i32 (i8*, ...) @printf(i8* getelementptr inbounds ([4 x i8], [4 x i8]* @.str.1, i64 0, i64 0), i32 %72)
  br label %74

74:                                               ; preds = %71, %68
  br label %75

75:                                               ; preds = %74
  %76 = load i32, i32* %3, align 4
  %77 = add nsw i32 %76, 1
  store i32 %77, i32* %3, align 4
  br label %8

78:                                               ; preds = %8
  ret i32 0
}

declare dso_local i32 @__isoc99_scanf(i8*, ...) #1

declare dso_local i32 @printf(i8*, ...) #1


!llvm.module.flags = !{!0}
!llvm.ident = !{!1}

!0 = !{i32 1, !"wchar_size", i32 4}
!1 = !{!"clang version 10.0.0-4ubuntu1 "}
