; ModuleID = 'source-C-CXX/49/757.c'
source_filename = "source-C-CXX/49/757.c"
target datalayout = "e-m:e-p270:32:32-p271:32:32-p272:64:64-i64:64-f80:128-n8:16:32:64-S128"
target triple = "x86_64-pc-linux-gnu"

@.str = private unnamed_addr constant [3 x i8] c"%d\00", align 1
@.str.1 = private unnamed_addr constant [4 x i8] c"%d\0A\00", align 1

; Function Attrs: nofree nounwind sspstrong uwtable
define dso_local i32 @main() local_unnamed_addr #0 {
  %1 = alloca i32, align 4
  %2 = bitcast i32* %1 to i8*
  call void @llvm.lifetime.start.p0i8(i64 4, i8* nonnull %2) #3
  %3 = call i32 (i8*, ...) @__isoc99_scanf(i8* getelementptr inbounds ([3 x i8], [3 x i8]* @.str, i64 0, i64 0), i32* nonnull %1)
  br label %4

4:                                                ; preds = %0, %37
  %5 = phi i32 [ 1, %0 ], [ %38, %37 ]
  %6 = phi i32 [ 12, %0 ], [ %27, %37 ]
  %7 = icmp eq i32 %5, 4
  %8 = and i32 %5, 2147483643
  %9 = icmp eq i32 %8, 2
  %10 = or i1 %7, %9
  %11 = and i32 %5, 2147483646
  %12 = icmp eq i32 %11, 8
  %13 = or i1 %12, %10
  %14 = icmp eq i32 %5, 11
  %15 = select i1 %13, i1 true, i1 %14
  br i1 %15, label %25, label %16

16:                                               ; preds = %4
  %17 = freeze i32 %5
  %18 = and i32 %17, 2147483645
  %19 = icmp eq i32 %18, 5
  br i1 %19, label %25, label %20

20:                                               ; preds = %16
  %21 = icmp eq i32 %17, 12
  %22 = icmp eq i32 %17, 10
  %23 = or i1 %21, %22
  %24 = select i1 %23, i32 30, i32 28
  br label %25

25:                                               ; preds = %16, %20, %4
  %26 = phi i32 [ 31, %4 ], [ %24, %20 ], [ 30, %16 ]
  %27 = add nuw nsw i32 %6, %26
  %28 = urem i32 %27, 7
  %29 = load i32, i32* %1, align 4, !tbaa !5
  %30 = add nsw i32 %28, %29
  %31 = icmp sgt i32 %30, 7
  %32 = add nsw i32 %30, -7
  %33 = select i1 %31, i32 %32, i32 %30
  %34 = icmp eq i32 %33, 5
  br i1 %34, label %35, label %37

35:                                               ; preds = %25
  %36 = call i32 (i8*, ...) @printf(i8* nonnull dereferenceable(1) getelementptr inbounds ([4 x i8], [4 x i8]* @.str.1, i64 0, i64 0), i32 %5)
  br label %37

37:                                               ; preds = %25, %35
  %38 = add nuw nsw i32 %5, 1
  %39 = icmp eq i32 %38, 13
  br i1 %39, label %40, label %4, !llvm.loop !9

40:                                               ; preds = %37
  call void @llvm.lifetime.end.p0i8(i64 4, i8* nonnull %2) #3
  ret i32 0
}

; Function Attrs: argmemonly mustprogress nofree nosync nounwind willreturn
declare void @llvm.lifetime.start.p0i8(i64 immarg, i8* nocapture) #1

; Function Attrs: nofree nounwind
declare noundef i32 @__isoc99_scanf(i8* nocapture noundef readonly, ...) local_unnamed_addr #2

; Function Attrs: nofree nounwind
declare noundef i32 @printf(i8* nocapture noundef readonly, ...) local_unnamed_addr #2

; Function Attrs: argmemonly mustprogress nofree nosync nounwind willreturn
declare void @llvm.lifetime.end.p0i8(i64 immarg, i8* nocapture) #1


!llvm.module.flags = !{!0, !1, !2, !3}
!llvm.ident = !{!4}

!0 = !{i32 1, !"wchar_size", i32 4}
!1 = !{i32 7, !"PIC Level", i32 2}
!2 = !{i32 7, !"PIE Level", i32 2}
!3 = !{i32 7, !"uwtable", i32 1}
!4 = !{!"clang version 13.0.0"}
!5 = !{!6, !6, i64 0}
!6 = !{!"int", !7, i64 0}
!7 = !{!"omnipotent char", !8, i64 0}
!8 = !{!"Simple C/C++ TBAA"}
!9 = distinct !{!9, !10}
!10 = !{!"llvm.loop.mustprogress"}
